; Function Attrs: mustprogress null_pointer_is_valid sspstrong uwtable
define void @_ZN16ImportTextDialog40on_ipVersionComboBox_currentIndexChangedEi(ptr noundef align 8 dereferenceable_or_null(305) initializes((184, 185)) %0, i32 noundef %1) local_unnamed_addr #2 align 2 personality ptr @__gxx_personality_v0 {
  %3 = alloca %class.QString, align 8
  %4 = alloca %class.QString, align 8
  %5 = icmp eq i32 %1, 1
  %6 = getelementptr inbounds nuw i8, ptr %0, i64 184
  %7 = zext i1 %5 to i8
  store i8 %7, ptr %6, align 8
  call void @llvm.lifetime.start.p0(i64 24, ptr nonnull %3) #27
  %8 = getelementptr inbounds nuw i8, ptr %0, i64 40
  %9 = load ptr, ptr %8, align 8
  %10 = getelementptr inbounds nuw i8, ptr %9, i64 632
  %11 = load ptr, ptr %10, align 8
  call void @_ZNK9QLineEdit4textEv(ptr dead_on_unwind nonnull writable sret(%class.QString) align 8 %3, ptr noundef align 8 dereferenceable_or_null(40) %11)
  %12 = load ptr, ptr %8, align 8
  %13 = getelementptr inbounds nuw i8, ptr %12, i64 696
  %14 = load ptr, ptr %13, align 8
  %15 = invoke noundef i32 @_ZNK9QComboBox12currentIndexEv(ptr noundef align 8 dereferenceable_or_null(40) %14)
          to label %.noexc unwind label %47

.noexc:                                           ; preds = %2
  %16 = icmp eq i32 %15, 1
  %17 = load ptr, ptr %8, align 8
  %18 = getelementptr inbounds nuw i8, ptr %17, i64 632
  %19 = load ptr, ptr %18, align 8
  %20 = getelementptr inbounds nuw i8, ptr %0, i64 297
  %21 = getelementptr inbounds nuw i8, ptr %0, i64 188
  br i1 %16, label %22, label %23

22:                                               ; preds = %.noexc
  invoke void @_ZN16ImportTextDialog16checkIPv6AddressEP14SyntaxLineEditRbRK7QStringP10e_in6_addr(ptr noundef align 8 dereferenceable_or_null(305) %0, ptr noundef %19, ptr noundef nonnull align 1 dereferenceable(1) %20, ptr noundef nonnull align 8 dereferenceable(24) %3, ptr noundef nonnull %21)
          to label %_ZN16ImportTextDialog36on_sourceAddressLineEdit_textChangedERK7QString.exit unwind label %47

23:                                               ; preds = %.noexc
  invoke void @_ZN16ImportTextDialog12checkAddressEP14SyntaxLineEditRbRK7QStringPj(ptr noundef align 8 dereferenceable_or_null(305) %0, ptr noundef %19, ptr noundef nonnull align 1 dereferenceable(1) %20, ptr noundef nonnull align 8 dereferenceable(24) %3, ptr noundef nonnull %21)
          to label %_ZN16ImportTextDialog36on_sourceAddressLineEdit_textChangedERK7QString.exit unwind label %47

_ZN16ImportTextDialog36on_sourceAddressLineEdit_textChangedERK7QString.exit: ; preds = %22, %23
  %24 = load ptr, ptr %3, align 8
  %.not.i.i.i = icmp eq ptr %24, null
  br i1 %.not.i.i.i, label %_ZN7QStringD2Ev.exit, label %_ZN17QArrayDataPointerIDsE5derefEv.exit.i.i

_ZN17QArrayDataPointerIDsE5derefEv.exit.i.i:      ; preds = %_ZN16ImportTextDialog36on_sourceAddressLineEdit_textChangedERK7QString.exit
  %25 = atomicrmw sub ptr %24, i32 1 seq_cst, align 4
  %.not.i.i = icmp eq i32 %25, 1
  br i1 %.not.i.i, label %26, label %_ZN7QStringD2Ev.exit

26:                                               ; preds = %_ZN17QArrayDataPointerIDsE5derefEv.exit.i.i
  %27 = load ptr, ptr %3, align 8
  call void @_ZN10QArrayData10deallocateEPS_xx(ptr noundef %27, i64 noundef 2, i64 noundef 8) #27
  br label %_ZN7QStringD2Ev.exit

_ZN7QStringD2Ev.exit:                             ; preds = %_ZN16ImportTextDialog36on_sourceAddressLineEdit_textChangedERK7QString.exit, %_ZN17QArrayDataPointerIDsE5derefEv.exit.i.i, %26
  call void @llvm.lifetime.end.p0(i64 24, ptr nonnull %3) #27
  call void @llvm.lifetime.start.p0(i64 24, ptr nonnull %4) #27
  %28 = load ptr, ptr %8, align 8
  %29 = getelementptr inbounds nuw i8, ptr %28, i64 640
  %30 = load ptr, ptr %29, align 8
  call void @_ZNK9QLineEdit4textEv(ptr dead_on_unwind nonnull writable sret(%class.QString) align 8 %4, ptr noundef align 8 dereferenceable_or_null(40) %30)
  %31 = load ptr, ptr %8, align 8
  %32 = getelementptr inbounds nuw i8, ptr %31, i64 696
  %33 = load ptr, ptr %32, align 8
  %34 = invoke noundef i32 @_ZNK9QComboBox12currentIndexEv(ptr noundef align 8 dereferenceable_or_null(40) %33)
          to label %.noexc7 unwind label %53

.noexc7:                                          ; preds = %_ZN7QStringD2Ev.exit
  %35 = icmp eq i32 %34, 1
  %36 = load ptr, ptr %8, align 8
  %37 = getelementptr inbounds nuw i8, ptr %36, i64 640
  %38 = load ptr, ptr %37, align 8
  %39 = getelementptr inbounds nuw i8, ptr %0, i64 298
  %40 = getelementptr inbounds nuw i8, ptr %0, i64 204
  br i1 %35, label %41, label %42

41:                                               ; preds = %.noexc7
  invoke void @_ZN16ImportTextDialog16checkIPv6AddressEP14SyntaxLineEditRbRK7QStringP10e_in6_addr(ptr noundef align 8 dereferenceable_or_null(305) %0, ptr noundef %38, ptr noundef nonnull align 1 dereferenceable(1) %39, ptr noundef nonnull align 8 dereferenceable(24) %4, ptr noundef nonnull %40)
          to label %_ZN16ImportTextDialog41on_destinationAddressLineEdit_textChangedERK7QString.exit unwind label %53

42:                                               ; preds = %.noexc7
  invoke void @_ZN16ImportTextDialog12checkAddressEP14SyntaxLineEditRbRK7QStringPj(ptr noundef align 8 dereferenceable_or_null(305) %0, ptr noundef %38, ptr noundef nonnull align 1 dereferenceable(1) %39, ptr noundef nonnull align 8 dereferenceable(24) %4, ptr noundef nonnull %40)
          to label %_ZN16ImportTextDialog41on_destinationAddressLineEdit_textChangedERK7QString.exit unwind label %53

_ZN16ImportTextDialog41on_destinationAddressLineEdit_textChangedERK7QString.exit: ; preds = %41, %42
  %43 = load ptr, ptr %4, align 8
  %.not.i.i.i10 = icmp eq ptr %43, null
  br i1 %.not.i.i.i10, label %_ZN7QStringD2Ev.exit13, label %_ZN17QArrayDataPointerIDsE5derefEv.exit.i.i11

_ZN17QArrayDataPointerIDsE5derefEv.exit.i.i11:    ; preds = %_ZN16ImportTextDialog41on_destinationAddressLineEdit_textChangedERK7QString.exit
  %44 = atomicrmw sub ptr %43, i32 1 seq_cst, align 4
  %.not.i.i12 = icmp eq i32 %44, 1
  br i1 %.not.i.i12, label %45, label %_ZN7QStringD2Ev.exit13

45:                                               ; preds = %_ZN17QArrayDataPointerIDsE5derefEv.exit.i.i11
  %46 = load ptr, ptr %4, align 8
  call void @_ZN10QArrayData10deallocateEPS_xx(ptr noundef %46, i64 noundef 2, i64 noundef 8) #27
  br label %_ZN7QStringD2Ev.exit13

_ZN7QStringD2Ev.exit13:                           ; preds = %_ZN16ImportTextDialog41on_destinationAddressLineEdit_textChangedERK7QString.exit, %_ZN17QArrayDataPointerIDsE5derefEv.exit.i.i11, %45
  call void @llvm.lifetime.end.p0(i64 24, ptr nonnull %4) #27
  ret void

47:                                               ; preds = %23, %22, %2
  %48 = landingpad { ptr, i32 }
          cleanup
  %49 = load ptr, ptr %3, align 8
  %.not.i.i.i14 = icmp eq ptr %49, null
  br i1 %.not.i.i.i14, label %_ZN7QStringD2Ev.exit17, label %_ZN17QArrayDataPointerIDsE5derefEv.exit.i.i15

_ZN17QArrayDataPointerIDsE5derefEv.exit.i.i15:    ; preds = %47
  %50 = atomicrmw sub ptr %49, i32 1 seq_cst, align 4
  %.not.i.i16 = icmp eq i32 %50, 1
  br i1 %.not.i.i16, label %51, label %_ZN7QStringD2Ev.exit17

51:                                               ; preds = %_ZN17QArrayDataPointerIDsE5derefEv.exit.i.i15
  %52 = load ptr, ptr %3, align 8
  call void @_ZN10QArrayData10deallocateEPS_xx(ptr noundef %52, i64 noundef 2, i64 noundef 8) #27
  br label %_ZN7QStringD2Ev.exit17

_ZN7QStringD2Ev.exit17:                           ; preds = %47, %_ZN17QArrayDataPointerIDsE5derefEv.exit.i.i15, %51
  call void @llvm.lifetime.end.p0(i64 24, ptr nonnull %3) #27
  br label %59

53:                                               ; preds = %42, %41, %_ZN7QStringD2Ev.exit
  %54 = landingpad { ptr, i32 }
          cleanup
  %55 = load ptr, ptr %4, align 8
  %.not.i.i.i18 = icmp eq ptr %55, null
  br i1 %.not.i.i.i18, label %_ZN7QStringD2Ev.exit21, label %_ZN17QArrayDataPointerIDsE5derefEv.exit.i.i19

_ZN17QArrayDataPointerIDsE5derefEv.exit.i.i19:    ; preds = %53
  %56 = atomicrmw sub ptr %55, i32 1 seq_cst, align 4
  %.not.i.i20 = icmp eq i32 %56, 1
  br i1 %.not.i.i20, label %57, label %_ZN7QStringD2Ev.exit21

57:                                               ; preds = %_ZN17QArrayDataPointerIDsE5derefEv.exit.i.i19
  %58 = load ptr, ptr %4, align 8
  call void @_ZN10QArrayData10deallocateEPS_xx(ptr noundef %58, i64 noundef 2, i64 noundef 8) #27
  br label %_ZN7QStringD2Ev.exit21

_ZN7QStringD2Ev.exit21:                           ; preds = %53, %_ZN17QArrayDataPointerIDsE5derefEv.exit.i.i19, %57
  call void @llvm.lifetime.end.p0(i64 24, ptr nonnull %4) #27
  br label %59

59:                                               ; preds = %_ZN7QStringD2Ev.exit21, %_ZN7QStringD2Ev.exit17
  %.pn = phi { ptr, i32 } [ %54, %_ZN7QStringD2Ev.exit21 ], [ %48, %_ZN7QStringD2Ev.exit17 ]
  resume { ptr, i32 } %.pn
}